target datalayout = "e-m:e-p270:32:32-p271:32:32-p272:64:64-i64:64-f80:128-n8:16:32:64-S128"
target triple = "x86_64-pc-linux-gnu"

@.str = private unnamed_addr constant [6 x i8] c"%d %d\00", align 1
@.str.1 = private unnamed_addr constant [3 x i8] c"%d\00", align 1
@.str.2 = private unnamed_addr constant [4 x i8] c"%d\0A\00", align 1
@.str.3 = private unnamed_addr constant [5 x i8] c" %d\0A\00", align 1
@.str.4 = private unnamed_addr constant [4 x i8] c" %d\00", align 1

; Function Attrs: noinline nounwind uwtable
define dso_local i32 @main() #0 {
  %1 = alloca i32, align 4
  %2 = alloca [100 x [100 x i32]], align 16
  %3 = alloca [100 x [100 x i32]], align 16
  %4 = alloca [100 x [100 x i32]], align 16
  %5 = alloca i32, align 4
  %6 = alloca i32, align 4
  %7 = alloca i32, align 4
  %8 = alloca i32, align 4
  %9 = alloca i32, align 4
  %10 = alloca i32, align 4
  %11 = alloca i32, align 4
  store i32 0, i32* %1, align 4
  %12 = call i32 (i8*, ...) @__isoc99_scanf(i8* getelementptr inbounds ([6 x i8], [6 x i8]* @.str, i64 0, i64 0), i32* %5, i32* %7)
  store i32 0, i32* %9, align 4
  br label %13

13:                                               ; preds = %34, %0
  %14 = load i32, i32* %9, align 4
  %15 = load i32, i32* %5, align 4
  %16 = icmp slt i32 %14, %15
  br i1 %16, label %17, label %37

17:                                               ; preds = %13
  store i32 0, i32* %10, align 4
  br label %18

18:                                               ; preds = %30, %17
  %19 = load i32, i32* %10, align 4
  %20 = load i32, i32* %7, align 4
  %21 = icmp slt i32 %19, %20
  br i1 %21, label %22, label %33

22:                                               ; preds = %18
  %23 = load i32, i32* %9, align 4
  %24 = sext i32 %23 to i64
  %25 = getelementptr inbounds [100 x [100 x i32]], [100 x [100 x i32]]* %2, i64 0, i64 %24
  %26 = load i32, i32* %10, align 4
  %27 = sext i32 %26 to i64
  %28 = getelementptr inbounds [100 x i32], [100 x i32]* %25, i64 0, i64 %27
  %29 = call i32 (i8*, ...) @__isoc99_scanf(i8* getelementptr inbounds ([3 x i8], [3 x i8]* @.str.1, i64 0, i64 0), i32* %28)
  br label %30

30:                                               ; preds = %22
  %31 = load i32, i32* %10, align 4
  %32 = add nsw i32 %31, 1
  store i32 %32, i32* %10, align 4
  br label %18

33:                                               ; preds = %18
  br label %34

34:                                               ; preds = %33
  %35 = load i32, i32* %9, align 4
  %36 = add nsw i32 %35, 1
  store i32 %36, i32* %9, align 4
  br label %13

37:                                               ; preds = %13
  %38 = call i32 (i8*, ...) @__isoc99_scanf(i8* getelementptr inbounds ([6 x i8], [6 x i8]* @.str, i64 0, i64 0), i32* %6, i32* %8)
  store i32 0, i32* %9, align 4
  br label %39

39:                                               ; preds = %60, %37
  %40 = load i32, i32* %9, align 4
  %41 = load i32, i32* %6, align 4
  %42 = icmp slt i32 %40, %41
  br i1 %42, label %43, label %63

43:                                               ; preds = %39
  store i32 0, i32* %10, align 4
  br label %44

44:                                               ; preds = %56, %43
  %45 = load i32, i32* %10, align 4
  %46 = load i32, i32* %8, align 4
  %47 = icmp slt i32 %45, %46
  br i1 %47, label %48, label %59

48:                                               ; preds = %44
  %49 = load i32, i32* %9, align 4
  %50 = sext i32 %49 to i64
  %51 = getelementptr inbounds [100 x [100 x i32]], [100 x [100 x i32]]* %3, i64 0, i64 %50
  %52 = load i32, i32* %10, align 4
  %53 = sext i32 %52 to i64
  %54 = getelementptr inbounds [100 x i32], [100 x i32]* %51, i64 0, i64 %53
  %55 = call i32 (i8*, ...) @__isoc99_scanf(i8* getelementptr inbounds ([3 x i8], [3 x i8]* @.str.1, i64 0, i64 0), i32* %54)
  br label %56

56:                                               ; preds = %48
  %57 = load i32, i32* %10, align 4
  %58 = add nsw i32 %57, 1
  store i32 %58, i32* %10, align 4
  br label %44

59:                                               ; preds = %44
  br label %60

60:                                               ; preds = %59
  %61 = load i32, i32* %9, align 4
  %62 = add nsw i32 %61, 1
  store i32 %62, i32* %9, align 4
  br label %39

63:                                               ; preds = %39
  store i32 0, i32* %9, align 4
  br label %64

64:                                               ; preds = %116, %63
  %65 = load i32, i32* %9, align 4
  %66 = load i32, i32* %5, align 4
  %67 = icmp slt i32 %65, %66
  br i1 %67, label %68, label %119

68:                                               ; preds = %64
  store i32 0, i32* %10, align 4
  br label %69

69:                                               ; preds = %112, %68
  %70 = load i32, i32* %10, align 4
  %71 = load i32, i32* %8, align 4
  %72 = icmp slt i32 %70, %71
  br i1 %72, label %73, label %115

73:                                               ; preds = %69
  %74 = load i32, i32* %9, align 4
  %75 = sext i32 %74 to i64
  %76 = getelementptr inbounds [100 x [100 x i32]], [100 x [100 x i32]]* %4, i64 0, i64 %75
  %77 = load i32, i32* %10, align 4
  %78 = sext i32 %77 to i64
  %79 = getelementptr inbounds [100 x i32], [100 x i32]* %76, i64 0, i64 %78
  store i32 0, i32* %79, align 4
  store i32 0, i32* %11, align 4
  br label %80

80:                                               ; preds = %108, %73
  %81 = load i32, i32* %11, align 4
  %82 = load i32, i32* %7, align 4
  %83 = icmp slt i32 %81, %82
  br i1 %83, label %84, label %111

84:                                               ; preds = %80
  %85 = load i32, i32* %9, align 4
  %86 = sext i32 %85 to i64
  %87 = getelementptr inbounds [100 x [100 x i32]], [100 x [100 x i32]]* %2, i64 0, i64 %86
  %88 = load i32, i32* %11, align 4
  %89 = sext i32 %88 to i64
  %90 = getelementptr inbounds [100 x i32], [100 x i32]* %87, i64 0, i64 %89
  %91 = load i32, i32* %90, align 4
  %92 = load i32, i32* %11, align 4
  %93 = sext i32 %92 to i64
  %94 = getelementptr inbounds [100 x [100 x i32]], [100 x [100 x i32]]* %3, i64 0, i64 %93
  %95 = load i32, i32* %10, align 4
  %96 = sext i32 %95 to i64
  %97 = getelementptr inbounds [100 x i32], [100 x i32]* %94, i64 0, i64 %96
  %98 = load i32, i32* %97, align 4
  %99 = mul nsw i32 %91, %98
  %100 = load i32, i32* %9, align 4
  %101 = sext i32 %100 to i64
  %102 = getelementptr inbounds [100 x [100 x i32]], [100 x [100 x i32]]* %4, i64 0, i64 %101
  %103 = load i32, i32* %10, align 4
  %104 = sext i32 %103 to i64
  %105 = getelementptr inbounds [100 x i32], [100 x i32]* %102, i64 0, i64 %104
  %106 = load i32, i32* %105, align 4
  %107 = add nsw i32 %106, %99
  store i32 %107, i32* %105, align 4
  br label %108

108:                                              ; preds = %84
  %109 = load i32, i32* %11, align 4
  %110 = add nsw i32 %109, 1
  store i32 %110, i32* %11, align 4
  br label %80

111:                                              ; preds = %80
  br label %112

112:                                              ; preds = %111
  %113 = load i32, i32* %10, align 4
  %114 = add nsw i32 %113, 1
  store i32 %114, i32* %10, align 4
  br label %69

115:                                              ; preds = %69
  br label %116

116:                                              ; preds = %115
  %117 = load i32, i32* %9, align 4
  %118 = add nsw i32 %117, 1
  store i32 %118, i32* %9, align 4
  br label %64

119:                                              ; preds = %64
  %120 = load i32, i32* %8, align 4
  %121 = icmp eq i32 %120, 1
  br i1 %121, label %122, label %138

122:                                              ; preds = %119
  store i32 0, i32* %9, align 4
  br label %123

123:                                              ; preds = %134, %122
  %124 = load i32, i32* %9, align 4
  %125 = load i32, i32* %5, align 4
  %126 = icmp slt i32 %124, %125
  br i1 %126, label %127, label %137

127:                                              ; preds = %123
  %128 = load i32, i32* %9, align 4
  %129 = sext i32 %128 to i64
  %130 = getelementptr inbounds [100 x [100 x i32]], [100 x [100 x i32]]* %4, i64 0, i64 %129
  %131 = getelementptr inbounds [100 x i32], [100 x i32]* %130, i64 0, i64 0
  %132 = load i32, i32* %131, align 16
  %133 = call i32 (i8*, ...) @printf(i8* getelementptr inbounds ([4 x i8], [4 x i8]* @.str.2, i64 0, i64 0), i32 %132)
  br label %134

134:                                              ; preds = %127
  %135 = load i32, i32* %9, align 4
  %136 = add nsw i32 %135, 1
  store i32 %136, i32* %9, align 4
  br label %123

137:                                              ; preds = %123
  br label %193

138:                                              ; preds = %119
  store i32 0, i32* %9, align 4
  br label %139

139:                                              ; preds = %189, %138
  %140 = load i32, i32* %9, align 4
  %141 = load i32, i32* %5, align 4
  %142 = icmp slt i32 %140, %141
  br i1 %142, label %143, label %192

143:                                              ; preds = %139
  store i32 0, i32* %10, align 4
  br label %144

144:                                              ; preds = %185, %143
  %145 = load i32, i32* %10, align 4
  %146 = load i32, i32* %8, align 4
  %147 = icmp slt i32 %145, %146
  br i1 %147, label %148, label %188

148:                                              ; preds = %144
  %149 = load i32, i32* %10, align 4
  %150 = icmp eq i32 %149, 0
  br i1 %150, label %151, label %160

151:                                              ; preds = %148
  %152 = load i32, i32* %9, align 4
  %153 = sext i32 %152 to i64
  %154 = getelementptr inbounds [100 x [100 x i32]], [100 x [100 x i32]]* %4, i64 0, i64 %153
  %155 = load i32, i32* %10, align 4
  %156 = sext i32 %155 to i64
  %157 = getelementptr inbounds [100 x i32], [100 x i32]* %154, i64 0, i64 %156
  %158 = load i32, i32* %157, align 4
  %159 = call i32 (i8*, ...) @printf(i8* getelementptr inbounds ([3 x i8], [3 x i8]* @.str.1, i64 0, i64 0), i32 %158)
  br label %184

160:                                              ; preds = %148
  %161 = load i32, i32* %10, align 4
  %162 = load i32, i32* %8, align 4
  %163 = sub nsw i32 %162, 1
  %164 = icmp eq i32 %161, %163
  br i1 %164, label %165, label %174

165:                                              ; preds = %160
  %166 = load i32, i32* %9, align 4
  %167 = sext i32 %166 to i64
  %168 = getelementptr inbounds [100 x [100 x i32]], [100 x [100 x i32]]* %4, i64 0, i64 %167
  %169 = load i32, i32* %10, align 4
  %170 = sext i32 %169 to i64
  %171 = getelementptr inbounds [100 x i32], [100 x i32]* %168, i64 0, i64 %170
  %172 = load i32, i32* %171, align 4
  %173 = call i32 (i8*, ...) @printf(i8* getelementptr inbounds ([5 x i8], [5 x i8]* @.str.3, i64 0, i64 0), i32 %172)
  br label %183

174:                                              ; preds = %160
  %175 = load i32, i32* %9, align 4
  %176 = sext i32 %175 to i64
  %177 = getelementptr inbounds [100 x [100 x i32]], [100 x [100 x i32]]* %4, i64 0, i64 %176
  %178 = load i32, i32* %10, align 4
  %179 = sext i32 %178 to i64
  %180 = getelementptr inbounds [100 x i32], [100 x i32]* %177, i64 0, i64 %179
  %181 = load i32, i32* %180, align 4
  %182 = call i32 (i8*, ...) @printf(i8* getelementptr inbounds ([4 x i8], [4 x i8]* @.str.4, i64 0, i64 0), i32 %181)
  br label %183

183:                                              ; preds = %174, %165
  br label %184

184:                                              ; preds = %183, %151
  br label %185

185:                                              ; preds = %184
  %186 = load i32, i32* %10, align 4
  %187 = add nsw i32 %186, 1
  store i32 %187, i32* %10, align 4
  br label %144

188:                                              ; preds = %144
  br label %189

189:                                              ; preds = %188
  %190 = load i32, i32* %9, align 4
  %191 = add nsw i32 %190, 1
  store i32 %191, i32* %9, align 4
  br label %139

192:                                              ; preds = %139
  br label %193

193:                                              ; preds = %192, %137
  %194 = load i32, i32* %1, align 4
  ret i32 %194
}