; Function Attrs: nofree nounwind sspstrong uwtable
define dso_local i32 @main() local_unnamed_addr #0 {
  %1 = alloca [100 x [100 x i32]], align 16
  %2 = alloca [100 x [100 x i32]], align 16
  %3 = alloca [100 x [100 x i32]], align 16
  %4 = alloca i32, align 4
  %5 = alloca i32, align 4
  %6 = alloca i32, align 4
  %7 = alloca i32, align 4
  %8 = bitcast [100 x [100 x i32]]* %1 to i8*
  call void @llvm.lifetime.start.p0i8(i64 40000, i8* nonnull %8) #4
  %9 = bitcast [100 x [100 x i32]]* %2 to i8*
  call void @llvm.lifetime.start.p0i8(i64 40000, i8* nonnull %9) #4
  %10 = bitcast [100 x [100 x i32]]* %3 to i8*
  call void @llvm.lifetime.start.p0i8(i64 40000, i8* nonnull %10) #4
  %11 = bitcast i32* %4 to i8*
  call void @llvm.lifetime.start.p0i8(i64 4, i8* nonnull %11) #4
  %12 = bitcast i32* %5 to i8*
  call void @llvm.lifetime.start.p0i8(i64 4, i8* nonnull %12) #4
  %13 = bitcast i32* %6 to i8*
  call void @llvm.lifetime.start.p0i8(i64 4, i8* nonnull %13) #4
  %14 = bitcast i32* %7 to i8*
  call void @llvm.lifetime.start.p0i8(i64 4, i8* nonnull %14) #4
  %15 = call i32 (i8*, ...) @__isoc99_scanf(i8* getelementptr inbounds ([6 x i8], [6 x i8]* @.str, i64 0, i64 0), i32* nonnull %4, i32* nonnull %6)
  %16 = load i32, i32* %4, align 4, !tbaa !5
  %17 = icmp sgt i32 %16, 0
  %18 = load i32, i32* %6, align 4
  %19 = icmp sgt i32 %18, 0
  %20 = select i1 %17, i1 %19, i1 false
  br i1 %20, label %21, label %42

21:                                               ; preds = %0, %36
  %22 = phi i32 [ %37, %36 ], [ %16, %0 ]
  %23 = phi i32 [ %38, %36 ], [ %18, %0 ]
  %24 = phi i64 [ %39, %36 ], [ 0, %0 ]
  %25 = icmp sgt i32 %23, 0
  br i1 %25, label %26, label %36

26:                                               ; preds = %21, %26
  %27 = phi i64 [ %30, %26 ], [ 0, %21 ]
  %28 = getelementptr inbounds [100 x [100 x i32]], [100 x [100 x i32]]* %1, i64 0, i64 %24, i64 %27
  %29 = call i32 (i8*, ...) @__isoc99_scanf(i8* getelementptr inbounds ([3 x i8], [3 x i8]* @.str.1, i64 0, i64 0), i32* nonnull %28)
  %30 = add nuw nsw i64 %27, 1
  %31 = load i32, i32* %6, align 4, !tbaa !5
  %32 = sext i32 %31 to i64
  %33 = icmp slt i64 %30, %32
  br i1 %33, label %26, label %34, !llvm.loop !9

34:                                               ; preds = %26
  %35 = load i32, i32* %4, align 4, !tbaa !5
  br label %36

36:                                               ; preds = %34, %21
  %37 = phi i32 [ %35, %34 ], [ %22, %21 ]
  %38 = phi i32 [ %31, %34 ], [ %23, %21 ]
  %39 = add nuw nsw i64 %24, 1
  %40 = sext i32 %37 to i64
  %41 = icmp slt i64 %39, %40
  br i1 %41, label %21, label %42, !llvm.loop !11

42:                                               ; preds = %36, %0
  %43 = call i32 (i8*, ...) @__isoc99_scanf(i8* getelementptr inbounds ([6 x i8], [6 x i8]* @.str, i64 0, i64 0), i32* nonnull %5, i32* nonnull %7)
  %44 = load i32, i32* %5, align 4, !tbaa !5
  %45 = icmp sgt i32 %44, 0
  %46 = load i32, i32* %7, align 4
  %47 = icmp sgt i32 %46, 0
  %48 = select i1 %45, i1 %47, i1 false
  br i1 %48, label %49, label %54

49:                                               ; preds = %42, %162
  %50 = phi i32 [ %163, %162 ], [ %44, %42 ]
  %51 = phi i32 [ %164, %162 ], [ %46, %42 ]
  %52 = phi i64 [ %165, %162 ], [ 0, %42 ]
  %53 = icmp sgt i32 %51, 0
  br i1 %53, label %152, label %162

54:                                               ; preds = %162, %42
  %55 = phi i32 [ %46, %42 ], [ %164, %162 ]
  %56 = load i32, i32* %4, align 4, !tbaa !5
  %57 = load i32, i32* %6, align 4
  %58 = icmp sgt i32 %56, 0
  %59 = icmp sgt i32 %55, 0
  %60 = select i1 %58, i1 %59, i1 false
  br i1 %60, label %61, label %228

61:                                               ; preds = %54
  %62 = icmp sgt i32 %57, 0
  br i1 %62, label %72, label %63

63:                                               ; preds = %61
  %64 = zext i32 %55 to i64
  %65 = shl nuw nsw i64 %64, 2
  %66 = zext i32 %56 to i64
  %67 = add nsw i64 %66, -1
  %68 = and i64 %66, 7
  %69 = icmp ult i64 %67, 7
  br i1 %69, label %168, label %70

70:                                               ; preds = %63
  %71 = and i64 %66, 4294967288
  br label %123

72:                                               ; preds = %61
  %73 = zext i32 %56 to i64
  %74 = zext i32 %55 to i64
  %75 = zext i32 %57 to i64
  %76 = and i64 %75, 1
  %77 = icmp eq i32 %57, 1
  %78 = and i64 %75, 4294967294
  %79 = icmp eq i64 %76, 0
  br label %80

80:                                               ; preds = %72, %120
  %81 = phi i64 [ 0, %72 ], [ %121, %120 ]
  br label %82

82:                                               ; preds = %116, %80
  %83 = phi i64 [ %118, %116 ], [ 0, %80 ]
  %84 = getelementptr inbounds [100 x [100 x i32]], [100 x [100 x i32]]* %3, i64 0, i64 %81, i64 %83
  br i1 %77, label %105, label %85

85:                                               ; preds = %82, %85
  %86 = phi i64 [ %102, %85 ], [ 0, %82 ]
  %87 = phi i32 [ %101, %85 ], [ 0, %82 ]
  %88 = phi i64 [ %103, %85 ], [ %78, %82 ]
  %89 = getelementptr inbounds [100 x [100 x i32]], [100 x [100 x i32]]* %1, i64 0, i64 %81, i64 %86
  %90 = load i32, i32* %89, align 8, !tbaa !5
  %91 = getelementptr inbounds [100 x [100 x i32]], [100 x [100 x i32]]* %2, i64 0, i64 %86, i64 %83
  %92 = load i32, i32* %91, align 4, !tbaa !5
  %93 = mul nsw i32 %92, %90
  %94 = add nsw i32 %87, %93
  %95 = or i64 %86, 1
  %96 = getelementptr inbounds [100 x [100 x i32]], [100 x [100 x i32]]* %1, i64 0, i64 %81, i64 %95
  %97 = load i32, i32* %96, align 4, !tbaa !5
  %98 = getelementptr inbounds [100 x [100 x i32]], [100 x [100 x i32]]* %2, i64 0, i64 %95, i64 %83
  %99 = load i32, i32* %98, align 4, !tbaa !5
  %100 = mul nsw i32 %99, %97
  %101 = add nsw i32 %94, %100
  %102 = add nuw nsw i64 %86, 2
  %103 = add i64 %88, -2
  %104 = icmp eq i64 %103, 0
  br i1 %104, label %105, label %85, !llvm.loop !13

105:                                              ; preds = %85, %82
  %106 = phi i32 [ undef, %82 ], [ %101, %85 ]
  %107 = phi i64 [ 0, %82 ], [ %102, %85 ]
  %108 = phi i32 [ 0, %82 ], [ %101, %85 ]
  br i1 %79, label %116, label %109

109:                                              ; preds = %105
  %110 = getelementptr inbounds [100 x [100 x i32]], [100 x [100 x i32]]* %2, i64 0, i64 %107, i64 %83
  %111 = load i32, i32* %110, align 4, !tbaa !5
  %112 = getelementptr inbounds [100 x [100 x i32]], [100 x [100 x i32]]* %1, i64 0, i64 %81, i64 %107
  %113 = load i32, i32* %112, align 4, !tbaa !5
  %114 = mul nsw i32 %111, %113
  %115 = add nsw i32 %108, %114
  br label %116

116:                                              ; preds = %105, %109
  %117 = phi i32 [ %106, %105 ], [ %115, %109 ]
  store i32 %117, i32* %84, align 4, !tbaa !5
  %118 = add nuw nsw i64 %83, 1
  %119 = icmp eq i64 %118, %74
  br i1 %119, label %120, label %82, !llvm.loop !14

120:                                              ; preds = %116
  %121 = add nuw nsw i64 %81, 1
  %122 = icmp eq i64 %121, %73
  br i1 %122, label %179, label %80, !llvm.loop !15

123:                                              ; preds = %123, %70
  %124 = phi i64 [ 0, %70 ], [ %149, %123 ]
  %125 = phi i64 [ %71, %70 ], [ %150, %123 ]
  %126 = getelementptr [100 x [100 x i32]], [100 x [100 x i32]]* %3, i64 0, i64 %124, i64 0
  %127 = bitcast i32* %126 to i8*
  call void @llvm.memset.p0i8.i64(i8* align 16 %127, i8 0, i64 %65, i1 false)
  %128 = or i64 %124, 1
  %129 = getelementptr [100 x [100 x i32]], [100 x [100 x i32]]* %3, i64 0, i64 %128, i64 0
  %130 = bitcast i32* %129 to i8*
  call void @llvm.memset.p0i8.i64(i8* align 16 %130, i8 0, i64 %65, i1 false)
  %131 = or i64 %124, 2
  %132 = getelementptr [100 x [100 x i32]], [100 x [100 x i32]]* %3, i64 0, i64 %131, i64 0
  %133 = bitcast i32* %132 to i8*
  call void @llvm.memset.p0i8.i64(i8* align 16 %133, i8 0, i64 %65, i1 false)
  %134 = or i64 %124, 3
  %135 = getelementptr [100 x [100 x i32]], [100 x [100 x i32]]* %3, i64 0, i64 %134, i64 0
  %136 = bitcast i32* %135 to i8*
  call void @llvm.memset.p0i8.i64(i8* align 16 %136, i8 0, i64 %65, i1 false)
  %137 = or i64 %124, 4
  %138 = getelementptr [100 x [100 x i32]], [100 x [100 x i32]]* %3, i64 0, i64 %137, i64 0
  %139 = bitcast i32* %138 to i8*
  call void @llvm.memset.p0i8.i64(i8* align 16 %139, i8 0, i64 %65, i1 false)
  %140 = or i64 %124, 5
  %141 = getelementptr [100 x [100 x i32]], [100 x [100 x i32]]* %3, i64 0, i64 %140, i64 0
  %142 = bitcast i32* %141 to i8*
  call void @llvm.memset.p0i8.i64(i8* align 16 %142, i8 0, i64 %65, i1 false)
  %143 = or i64 %124, 6
  %144 = getelementptr [100 x [100 x i32]], [100 x [100 x i32]]* %3, i64 0, i64 %143, i64 0
  %145 = bitcast i32* %144 to i8*
  call void @llvm.memset.p0i8.i64(i8* align 16 %145, i8 0, i64 %65, i1 false)
  %146 = or i64 %124, 7
  %147 = getelementptr [100 x [100 x i32]], [100 x [100 x i32]]* %3, i64 0, i64 %146, i64 0
  %148 = bitcast i32* %147 to i8*
  call void @llvm.memset.p0i8.i64(i8* align 16 %148, i8 0, i64 %65, i1 false)
  %149 = add nuw nsw i64 %124, 8
  %150 = add i64 %125, -8
  %151 = icmp eq i64 %150, 0
  br i1 %151, label %168, label %123, !llvm.loop !15

152:                                              ; preds = %49, %152
  %153 = phi i64 [ %156, %152 ], [ 0, %49 ]
  %154 = getelementptr inbounds [100 x [100 x i32]], [100 x [100 x i32]]* %2, i64 0, i64 %52, i64 %153
  %155 = call i32 (i8*, ...) @__isoc99_scanf(i8* getelementptr inbounds ([3 x i8], [3 x i8]* @.str.1, i64 0, i64 0), i32* nonnull %154)
  %156 = add nuw nsw i64 %153, 1
  %157 = load i32, i32* %7, align 4, !tbaa !5
  %158 = sext i32 %157 to i64
  %159 = icmp slt i64 %156, %158
  br i1 %159, label %152, label %160, !llvm.loop !16

160:                                              ; preds = %152
  %161 = load i32, i32* %5, align 4, !tbaa !5
  br label %162

162:                                              ; preds = %160, %49
  %163 = phi i32 [ %161, %160 ], [ %50, %49 ]
  %164 = phi i32 [ %157, %160 ], [ %51, %49 ]
  %165 = add nuw nsw i64 %52, 1
  %166 = sext i32 %163 to i64
  %167 = icmp slt i64 %165, %166
  br i1 %167, label %49, label %54, !llvm.loop !17

168:                                              ; preds = %123, %63
  %169 = phi i64 [ 0, %63 ], [ %149, %123 ]
  %170 = icmp eq i64 %68, 0
  br i1 %170, label %179, label %171

171:                                              ; preds = %168, %171
  %172 = phi i64 [ %176, %171 ], [ %169, %168 ]
  %173 = phi i64 [ %177, %171 ], [ %68, %168 ]
  %174 = getelementptr [100 x [100 x i32]], [100 x [100 x i32]]* %3, i64 0, i64 %172, i64 0
  %175 = bitcast i32* %174 to i8*
  call void @llvm.memset.p0i8.i64(i8* align 16 %175, i8 0, i64 %65, i1 false)
  %176 = add nuw nsw i64 %172, 1
  %177 = add i64 %173, -1
  %178 = icmp eq i64 %177, 0
  br i1 %178, label %179, label %171, !llvm.loop !18

179:                                              ; preds = %168, %171, %120
  %180 = icmp eq i32 %55, 1
  br i1 %180, label %184, label %181

181:                                              ; preds = %179
  %182 = icmp sgt i32 %55, 0
  %183 = select i1 %58, i1 %182, i1 false
  br i1 %183, label %194, label %228

184:                                              ; preds = %179
  br i1 %58, label %185, label %228

185:                                              ; preds = %184, %185
  %186 = phi i64 [ %190, %185 ], [ 0, %184 ]
  %187 = getelementptr inbounds [100 x [100 x i32]], [100 x [100 x i32]]* %3, i64 0, i64 %186, i64 0
  %188 = load i32, i32* %187, align 16, !tbaa !5
  %189 = call i32 (i8*, ...) @printf(i8* nonnull dereferenceable(1) getelementptr inbounds ([4 x i8], [4 x i8]* @.str.2, i64 0, i64 0), i32 %188)
  %190 = add nuw nsw i64 %186, 1
  %191 = load i32, i32* %4, align 4, !tbaa !5
  %192 = sext i32 %191 to i64
  %193 = icmp slt i64 %190, %192
  br i1 %193, label %185, label %228, !llvm.loop !20

194:                                              ; preds = %181, %222
  %195 = phi i32 [ %223, %222 ], [ %56, %181 ]
  %196 = phi i32 [ %224, %222 ], [ %55, %181 ]
  %197 = phi i64 [ %225, %222 ], [ 0, %181 ]
  %198 = icmp sgt i32 %196, 0
  br i1 %198, label %199, label %222

199:                                              ; preds = %194
  %200 = getelementptr inbounds [100 x [100 x i32]], [100 x [100 x i32]]* %3, i64 0, i64 %197, i64 0
  %201 = load i32, i32* %200, align 16, !tbaa !5
  %202 = call i32 (i8*, ...) @printf(i8* nonnull dereferenceable(1) getelementptr inbounds ([3 x i8], [3 x i8]* @.str.1, i64 0, i64 0), i32 %201)
  %203 = load i32, i32* %7, align 4, !tbaa !5
  %204 = icmp sgt i32 %203, 1
  br i1 %204, label %205, label %219

205:                                              ; preds = %199, %205
  %206 = phi i64 [ %215, %205 ], [ 1, %199 ]
  %207 = phi i32 [ %216, %205 ], [ %203, %199 ]
  %208 = add nsw i32 %207, -1
  %209 = zext i32 %208 to i64
  %210 = icmp eq i64 %206, %209
  %211 = getelementptr inbounds [100 x [100 x i32]], [100 x [100 x i32]]* %3, i64 0, i64 %197, i64 %206
  %212 = load i32, i32* %211, align 4, !tbaa !5
  %213 = select i1 %210, i8* getelementptr inbounds ([5 x i8], [5 x i8]* @.str.3, i64 0, i64 0), i8* getelementptr inbounds ([4 x i8], [4 x i8]* @.str.4, i64 0, i64 0)
  %214 = call i32 (i8*, ...) @printf(i8* nonnull dereferenceable(1) %213, i32 %212)
  %215 = add nuw nsw i64 %206, 1
  %216 = load i32, i32* %7, align 4, !tbaa !5
  %217 = sext i32 %216 to i64
  %218 = icmp slt i64 %215, %217
  br i1 %218, label %205, label %219, !llvm.loop !21

219:                                              ; preds = %205, %199
  %220 = phi i32 [ %203, %199 ], [ %216, %205 ]
  %221 = load i32, i32* %4, align 4, !tbaa !5
  br label %222

222:                                              ; preds = %219, %194
  %223 = phi i32 [ %221, %219 ], [ %195, %194 ]
  %224 = phi i32 [ %220, %219 ], [ %196, %194 ]
  %225 = add nuw nsw i64 %197, 1
  %226 = sext i32 %223 to i64
  %227 = icmp slt i64 %225, %226
  br i1 %227, label %194, label %228, !llvm.loop !23

228:                                              ; preds = %222, %185, %54, %181, %184
  call void @llvm.lifetime.end.p0i8(i64 4, i8* nonnull %14) #4
  call void @llvm.lifetime.end.p0i8(i64 4, i8* nonnull %13) #4
  call void @llvm.lifetime.end.p0i8(i64 4, i8* nonnull %12) #4
  call void @llvm.lifetime.end.p0i8(i64 4, i8* nonnull %11) #4
  call void @llvm.lifetime.end.p0i8(i64 40000, i8* nonnull %10) #4
  call void @llvm.lifetime.end.p0i8(i64 40000, i8* nonnull %9) #4
  call void @llvm.lifetime.end.p0i8(i64 40000, i8* nonnull %8) #4
  ret i32 0
}